target datalayout = "e-m:e-p270:32:32-p271:32:32-p272:64:64-i64:64-i128:128-f80:128-n8:16:32:64-S128"
target triple = "x86_64-unknown-linux-gnu"

%"class.std::shared_ptr" = type { %"class.std::__shared_ptr" }
%"class.std::__shared_ptr" = type { ptr, %"class.std::__shared_count" }
%"class.std::__shared_count" = type { ptr }
%"class.std::__cxx11::basic_string" = type { %"struct.std::__cxx11::basic_string<char>::_Alloc_hider", i64, %union.anon.111 }
%"struct.std::__cxx11::basic_string<char>::_Alloc_hider" = type { ptr }
%union.anon.111 = type { i64, [8 x i8] }
%"class.OpenColorIO_v2_4dev::CPUProcessor::Impl" = type { %"class.std::shared_ptr", %"class.std::vector.137", %"class.std::shared_ptr", i32, i32, i8, i8, i8, %"class.std::__cxx11::basic_string", %"class.std::mutex" }
%"class.std::vector.137" = type { %"struct.std::_Vector_base.138" }
%"struct.std::_Vector_base.138" = type { %"struct.std::_Vector_base<std::shared_ptr<const OpenColorIO_v2_4dev::OpCPU>, std::allocator<std::shared_ptr<const OpenColorIO_v2_4dev::OpCPU>>>::_Vector_impl" }
%"struct.std::_Vector_base<std::shared_ptr<const OpenColorIO_v2_4dev::OpCPU>, std::allocator<std::shared_ptr<const OpenColorIO_v2_4dev::OpCPU>>>::_Vector_impl" = type { %"struct.std::_Vector_base<std::shared_ptr<const OpenColorIO_v2_4dev::OpCPU>, std::allocator<std::shared_ptr<const OpenColorIO_v2_4dev::OpCPU>>>::_Vector_impl_data" }
%"struct.std::_Vector_base<std::shared_ptr<const OpenColorIO_v2_4dev::OpCPU>, std::allocator<std::shared_ptr<const OpenColorIO_v2_4dev::OpCPU>>>::_Vector_impl_data" = type { ptr, ptr, ptr }
%"class.std::mutex" = type { %"class.std::__mutex_base" }
%"class.std::__mutex_base" = type { %union.pthread_mutex_t }
%union.pthread_mutex_t = type { %struct.__pthread_mutex_s }
%struct.__pthread_mutex_s = type { i32, i32, i32, i32, i32, i16, i16, %struct.__pthread_internal_list }
%struct.__pthread_internal_list = type { ptr, ptr }
%"class.OpenColorIO_v2_4dev::CPUProcessor" = type { ptr }

; Function Attrs: mustprogress nounwind uwtable
define linkonce_odr hidden noundef zeroext i1 @_ZNK19OpenColorIO_v2_4dev12CPUProcessor4Impl10isIdentityEv(ptr noundef nonnull align 8 dereferenceable(144) %this) #5 comdat align 2 {
entry:
  %this.addr = alloca ptr, align 8
  store ptr %this, ptr %this.addr, align 8
  %this1 = load ptr, ptr %this.addr, align 8
  %m_isIdentity = getelementptr inbounds %"class.OpenColorIO_v2_4dev::CPUProcessor::Impl", ptr %this1, i32 0, i32 6
  %0 = load i8, ptr %m_isIdentity, align 1
  %tobool = trunc i8 %0 to i1
  ret i1 %tobool
}

; Function Attrs: mustprogress nounwind uwtable
define linkonce_odr hidden noundef ptr @_ZNK19OpenColorIO_v2_4dev12CPUProcessor7getImplEv(ptr noundef nonnull align 8 dereferenceable(8) %this) #5 comdat align 2 {
entry:
  %this.addr = alloca ptr, align 8
  store ptr %this, ptr %this.addr, align 8
  %this1 = load ptr, ptr %this.addr, align 8
  %m_impl = getelementptr inbounds %"class.OpenColorIO_v2_4dev::CPUProcessor", ptr %this1, i32 0, i32 0
  %0 = load ptr, ptr %m_impl, align 8
  ret ptr %0
}

; Function Attrs: mustprogress uwtable
define noundef zeroext i1 @_ZNK19OpenColorIO_v2_4dev12CPUProcessor10isIdentityEv(ptr noundef nonnull align 8 dereferenceable(8) %this) #4 align 2 {
entry:
  %this.addr = alloca ptr, align 8
  store ptr %this, ptr %this.addr, align 8
  %this1 = load ptr, ptr %this.addr, align 8
  %call = call noundef ptr @_ZNK19OpenColorIO_v2_4dev12CPUProcessor7getImplEv(ptr noundef nonnull align 8 dereferenceable(8) %this1)
  %call2 = call noundef zeroext i1 @_ZNK19OpenColorIO_v2_4dev12CPUProcessor4Impl10isIdentityEv(ptr noundef nonnull align 8 dereferenceable(144) %call) #3
  ret i1 %call2
}